target datalayout = "e-m:e-p270:32:32-p271:32:32-p272:64:64-i64:64-i128:128-f80:128-n8:16:32:64-S128"
target triple = "x86_64-pc-linux-gnu"

%struct.H5C_cache_entry_t = type { ptr, i64, i64, ptr, i8, ptr, i8, i8, i8, i8, i32, i8, i8, i8, i8, i8, i32, ptr, i32, i32, i32, i32, i32, i8, i8, ptr, ptr, ptr, ptr, ptr, ptr, i8, i32, i8, i64, ptr, i64, i64, i32, i8, i32, i32, i8, ptr, ptr, ptr }
%struct.H5EA_hdr_t = type { %struct.H5C_cache_entry_t, %struct.H5EA_create_t, i64, %struct.H5EA_stat_t, %struct.anon.1, i64, i64, i64, ptr, i64, i8, i64, i64, i8, i64, ptr, i64, ptr, i8, ptr, ptr }
%struct.H5EA_create_t = type { ptr, i8, i8, i8, i8, i8, i8 }
%struct.H5EA_stat_t = type { %struct.anon, %struct.anon.0 }
%struct.anon = type { i64, i64, i64 }
%struct.anon.0 = type { i64, i64, i64, i64, i64, i64 }
%struct.anon.1 = type { i64, ptr }

@H5EA_init_g = external global i8, align 1
@H5_libterm_g = external global i8, align 1

; Function Attrs: inlinehint nounwind uwtable
define internal i32 @H5VM_log2_gen(i64 noundef %0) #4 {
  %2 = alloca i64, align 8
  %3 = alloca i32, align 4
  %4 = alloca i32, align 4
  %5 = alloca i32, align 4
  %6 = alloca i32, align 4
  store i64 %0, ptr %2, align 8, !tbaa !9
  call void @llvm.lifetime.start.p0(i64 4, ptr %3) #5
  call void @llvm.lifetime.start.p0(i64 4, ptr %4) #5
  call void @llvm.lifetime.start.p0(i64 4, ptr %5) #5
  call void @llvm.lifetime.start.p0(i64 4, ptr %6) #5
  %7 = load i64, ptr %2, align 8, !tbaa !9
  %8 = lshr i64 %7, 32
  %9 = trunc i64 %8 to i32
  store i32 %9, ptr %6, align 4, !tbaa !43
  %10 = icmp ne i32 %9, 0
  br i1 %10, label %11, label %61

11:                                               ; preds = %1
  %12 = load i64, ptr %2, align 8, !tbaa !9
  %13 = lshr i64 %12, 48
  %14 = trunc i64 %13 to i32
  store i32 %14, ptr %5, align 4, !tbaa !43
  %15 = icmp ne i32 %14, 0
  br i1 %15, label %16, label %38

16:                                               ; preds = %11
  %17 = load i64, ptr %2, align 8, !tbaa !9
  %18 = lshr i64 %17, 56
  %19 = trunc i64 %18 to i32
  store i32 %19, ptr %4, align 4, !tbaa !43
  %20 = icmp ne i32 %19, 0
  br i1 %20, label %21, label %28

21:                                               ; preds = %16
  %22 = load i32, ptr %4, align 4, !tbaa !43
  %23 = zext i32 %22 to i64
  %24 = getelementptr inbounds nuw [256 x i8], ptr @LogTable256, i64 0, i64 %23
  %25 = load i8, ptr %24, align 1, !tbaa !64
  %26 = zext i8 %25 to i32
  %27 = add i32 56, %26
  br label %36

28:                                               ; preds = %16
  %29 = load i32, ptr %5, align 4, !tbaa !43
  %30 = and i32 %29, 255
  %31 = zext i32 %30 to i64
  %32 = getelementptr inbounds nuw [256 x i8], ptr @LogTable256, i64 0, i64 %31
  %33 = load i8, ptr %32, align 1, !tbaa !64
  %34 = zext i8 %33 to i32
  %35 = add i32 48, %34
  br label %36

36:                                               ; preds = %28, %21
  %37 = phi i32 [ %27, %21 ], [ %35, %28 ]
  store i32 %37, ptr %3, align 4, !tbaa !43
  br label %60

38:                                               ; preds = %11
  %39 = load i64, ptr %2, align 8, !tbaa !9
  %40 = lshr i64 %39, 40
  %41 = trunc i64 %40 to i32
  store i32 %41, ptr %4, align 4, !tbaa !43
  %42 = icmp ne i32 %41, 0
  br i1 %42, label %43, label %50

43:                                               ; preds = %38
  %44 = load i32, ptr %4, align 4, !tbaa !43
  %45 = zext i32 %44 to i64
  %46 = getelementptr inbounds nuw [256 x i8], ptr @LogTable256, i64 0, i64 %45
  %47 = load i8, ptr %46, align 1, !tbaa !64
  %48 = zext i8 %47 to i32
  %49 = add i32 40, %48
  br label %58

50:                                               ; preds = %38
  %51 = load i32, ptr %6, align 4, !tbaa !43
  %52 = and i32 %51, 255
  %53 = zext i32 %52 to i64
  %54 = getelementptr inbounds nuw [256 x i8], ptr @LogTable256, i64 0, i64 %53
  %55 = load i8, ptr %54, align 1, !tbaa !64
  %56 = zext i8 %55 to i32
  %57 = add i32 32, %56
  br label %58

58:                                               ; preds = %50, %43
  %59 = phi i32 [ %49, %43 ], [ %57, %50 ]
  store i32 %59, ptr %3, align 4, !tbaa !43
  br label %60

60:                                               ; preds = %58, %36
  br label %110

61:                                               ; preds = %1
  %62 = load i64, ptr %2, align 8, !tbaa !9
  %63 = lshr i64 %62, 16
  %64 = trunc i64 %63 to i32
  store i32 %64, ptr %5, align 4, !tbaa !43
  %65 = icmp ne i32 %64, 0
  br i1 %65, label %66, label %88

66:                                               ; preds = %61
  %67 = load i64, ptr %2, align 8, !tbaa !9
  %68 = lshr i64 %67, 24
  %69 = trunc i64 %68 to i32
  store i32 %69, ptr %4, align 4, !tbaa !43
  %70 = icmp ne i32 %69, 0
  br i1 %70, label %71, label %78

71:                                               ; preds = %66
  %72 = load i32, ptr %4, align 4, !tbaa !43
  %73 = zext i32 %72 to i64
  %74 = getelementptr inbounds nuw [256 x i8], ptr @LogTable256, i64 0, i64 %73
  %75 = load i8, ptr %74, align 1, !tbaa !64
  %76 = zext i8 %75 to i32
  %77 = add i32 24, %76
  br label %86

78:                                               ; preds = %66
  %79 = load i32, ptr %5, align 4, !tbaa !43
  %80 = and i32 %79, 255
  %81 = zext i32 %80 to i64
  %82 = getelementptr inbounds nuw [256 x i8], ptr @LogTable256, i64 0, i64 %81
  %83 = load i8, ptr %82, align 1, !tbaa !64
  %84 = zext i8 %83 to i32
  %85 = add i32 16, %84
  br label %86

86:                                               ; preds = %78, %71
  %87 = phi i32 [ %77, %71 ], [ %85, %78 ]
  store i32 %87, ptr %3, align 4, !tbaa !43
  br label %109

88:                                               ; preds = %61
  %89 = load i64, ptr %2, align 8, !tbaa !9
  %90 = lshr i64 %89, 8
  %91 = trunc i64 %90 to i32
  store i32 %91, ptr %4, align 4, !tbaa !43
  %92 = icmp ne i32 %91, 0
  br i1 %92, label %93, label %100

93:                                               ; preds = %88
  %94 = load i32, ptr %4, align 4, !tbaa !43
  %95 = zext i32 %94 to i64
  %96 = getelementptr inbounds nuw [256 x i8], ptr @LogTable256, i64 0, i64 %95
  %97 = load i8, ptr %96, align 1, !tbaa !64
  %98 = zext i8 %97 to i32
  %99 = add i32 8, %98
  br label %107

100:                                              ; preds = %88
  %101 = load i64, ptr %2, align 8, !tbaa !9
  %102 = trunc i64 %101 to i8
  %103 = zext i8 %102 to i64
  %104 = getelementptr inbounds nuw [256 x i8], ptr @LogTable256, i64 0, i64 %103
  %105 = load i8, ptr %104, align 1, !tbaa !64
  %106 = zext i8 %105 to i32
  br label %107

107:                                              ; preds = %100, %93
  %108 = phi i32 [ %99, %93 ], [ %106, %100 ]
  store i32 %108, ptr %3, align 4, !tbaa !43
  br label %109

109:                                              ; preds = %107, %86
  br label %110

110:                                              ; preds = %109, %60
  %111 = load i32, ptr %3, align 4, !tbaa !43
  call void @llvm.lifetime.end.p0(i64 4, ptr %6) #5
  call void @llvm.lifetime.end.p0(i64 4, ptr %5) #5
  call void @llvm.lifetime.end.p0(i64 4, ptr %4) #5
  call void @llvm.lifetime.end.p0(i64 4, ptr %3) #5
  ret i32 %111
}

; Function Attrs: nounwind uwtable
define i32 @H5EA__dblock_sblk_idx(ptr noundef %0, i64 noundef %1) #0 {
  %3 = alloca ptr, align 8
  %4 = alloca i64, align 8
  %5 = alloca i32, align 4
  store ptr %0, ptr %3, align 8, !tbaa !3
  store i64 %1, ptr %4, align 8, !tbaa !9
  call void @llvm.lifetime.start.p0(i64 4, ptr %5) #5
  store i32 0, ptr %5, align 4, !tbaa !43
  %6 = load i8, ptr @H5EA_init_g, align 1, !tbaa !13, !range !15, !noundef !16
  %7 = trunc i8 %6 to i1
  br i1 %7, label %12, label %8

8:                                                ; preds = %2
  %9 = load i8, ptr @H5_libterm_g, align 1, !tbaa !13, !range !15, !noundef !16
  %10 = trunc i8 %9 to i1
  %11 = xor i1 %10, true
  br label %12

12:                                               ; preds = %8, %2
  %13 = phi i1 [ true, %2 ], [ %11, %8 ]
  %14 = xor i1 %13, true
  %15 = xor i1 %14, true
  %16 = zext i1 %15 to i32
  %17 = sext i32 %16 to i64
  %18 = call i64 @llvm.expect.i64(i64 %17, i64 1)
  %19 = icmp ne i64 %18, 0
  br i1 %19, label %20, label %37

20:                                               ; preds = %12
  %21 = load ptr, ptr %3, align 8, !tbaa !3
  %22 = getelementptr inbounds nuw %struct.H5EA_hdr_t, ptr %21, i32 0, i32 1
  %23 = getelementptr inbounds nuw %struct.H5EA_create_t, ptr %22, i32 0, i32 3
  %24 = load i8, ptr %23, align 2, !tbaa !62
  %25 = zext i8 %24 to i64
  %26 = load i64, ptr %4, align 8, !tbaa !9
  %27 = sub i64 %26, %25
  store i64 %27, ptr %4, align 8, !tbaa !9
  %28 = load i64, ptr %4, align 8, !tbaa !9
  %29 = load ptr, ptr %3, align 8, !tbaa !3
  %30 = getelementptr inbounds nuw %struct.H5EA_hdr_t, ptr %29, i32 0, i32 1
  %31 = getelementptr inbounds nuw %struct.H5EA_create_t, ptr %30, i32 0, i32 4
  %32 = load i8, ptr %31, align 1, !tbaa !63
  %33 = zext i8 %32 to i64
  %34 = udiv i64 %28, %33
  %35 = add i64 %34, 1
  %36 = call i32 @H5VM_log2_gen(i64 noundef %35)
  store i32 %36, ptr %5, align 4, !tbaa !43
  br label %37

37:                                               ; preds = %20, %12
  %38 = load i32, ptr %5, align 4, !tbaa !43
  call void @llvm.lifetime.end.p0(i64 4, ptr %5) #5
  ret i32 %38
}