; Function Attrs: mustprogress nofree norecurse nosync nounwind willreturn memory(read, inaccessiblemem: none) uwtable
define range(i32 0, 312) i32 @H5EA__dblock_sblk_idx(ptr noundef readonly captures(none) %0, i64 noundef %1) local_unnamed_addr #3 {
  %3 = load i8, ptr @H5EA_init_g, align 1, !tbaa !3, !range !7, !noundef !8
  %4 = trunc nuw i8 %3 to i1
  %5 = load i8, ptr @H5_libterm_g, align 1, !range !7
  %6 = trunc nuw i8 %5 to i1
  %7 = xor i1 %6, true
  %8 = select i1 %4, i1 true, i1 %7
  br i1 %8, label %9, label %H5VM_log2_gen.exit, !prof !9

9:                                                ; preds = %2
  %10 = getelementptr inbounds nuw i8, ptr %0, i64 258
  %11 = load i8, ptr %10, align 2, !tbaa !56
  %12 = zext i8 %11 to i64
  %13 = sub i64 %1, %12
  %14 = getelementptr inbounds nuw i8, ptr %0, i64 259
  %15 = load i8, ptr %14, align 1, !tbaa !57
  %16 = zext i8 %15 to i64
  %17 = udiv i64 %13, %16
  %18 = add i64 %17, 1
  %19 = lshr i64 %18, 32
  %.not.i = icmp ult i64 %18, 4294967296
  br i1 %.not.i, label %46, label %20

20:                                               ; preds = %9
  %21 = lshr i64 %18, 48
  %.not26.i = icmp ult i64 %18, 281474976710656
  br i1 %.not26.i, label %34, label %22

22:                                               ; preds = %20
  %.not28.i = icmp ult i64 %18, 72057594037927936
  br i1 %.not28.i, label %29, label %23

23:                                               ; preds = %22
  %24 = lshr i64 %18, 56
  %25 = getelementptr inbounds nuw [256 x i8], ptr @LogTable256, i64 0, i64 %24
  %26 = load i8, ptr %25, align 1, !tbaa !58
  %27 = zext i8 %26 to i32
  %28 = add nuw nsw i32 %27, 56
  br label %H5VM_log2_gen.exit

29:                                               ; preds = %22
  %30 = getelementptr inbounds nuw [256 x i8], ptr @LogTable256, i64 0, i64 %21
  %31 = load i8, ptr %30, align 1, !tbaa !58
  %32 = zext i8 %31 to i32
  %33 = add nuw nsw i32 %32, 48
  br label %H5VM_log2_gen.exit

34:                                               ; preds = %20
  %.not27.i = icmp samesign ult i64 %18, 1099511627776
  br i1 %.not27.i, label %41, label %35

35:                                               ; preds = %34
  %36 = lshr i64 %18, 40
  %37 = getelementptr inbounds nuw [256 x i8], ptr @LogTable256, i64 0, i64 %36
  %38 = load i8, ptr %37, align 1, !tbaa !58
  %39 = zext i8 %38 to i32
  %40 = add nuw nsw i32 %39, 40
  br label %H5VM_log2_gen.exit

41:                                               ; preds = %34
  %42 = getelementptr inbounds nuw [256 x i8], ptr @LogTable256, i64 0, i64 %19
  %43 = load i8, ptr %42, align 1, !tbaa !58
  %44 = zext i8 %43 to i32
  %45 = add nuw nsw i32 %44, 32
  br label %H5VM_log2_gen.exit

46:                                               ; preds = %9
  %47 = lshr i64 %18, 16
  %.not23.i = icmp samesign ult i64 %18, 65536
  br i1 %.not23.i, label %60, label %48

48:                                               ; preds = %46
  %.not25.i = icmp samesign ult i64 %18, 16777216
  br i1 %.not25.i, label %55, label %49

49:                                               ; preds = %48
  %50 = lshr i64 %18, 24
  %51 = getelementptr inbounds nuw [256 x i8], ptr @LogTable256, i64 0, i64 %50
  %52 = load i8, ptr %51, align 1, !tbaa !58
  %53 = zext i8 %52 to i32
  %54 = add nuw nsw i32 %53, 24
  br label %H5VM_log2_gen.exit

55:                                               ; preds = %48
  %56 = getelementptr inbounds nuw [256 x i8], ptr @LogTable256, i64 0, i64 %47
  %57 = load i8, ptr %56, align 1, !tbaa !58
  %58 = zext i8 %57 to i32
  %59 = add nuw nsw i32 %58, 16
  br label %H5VM_log2_gen.exit

60:                                               ; preds = %46
  %.not24.i = icmp samesign ult i64 %18, 256
  br i1 %.not24.i, label %67, label %61

61:                                               ; preds = %60
  %62 = lshr i64 %18, 8
  %63 = getelementptr inbounds nuw [256 x i8], ptr @LogTable256, i64 0, i64 %62
  %64 = load i8, ptr %63, align 1, !tbaa !58
  %65 = zext i8 %64 to i32
  %66 = add nuw nsw i32 %65, 8
  br label %H5VM_log2_gen.exit

67:                                               ; preds = %60
  %68 = getelementptr inbounds nuw [256 x i8], ptr @LogTable256, i64 0, i64 %18
  %69 = load i8, ptr %68, align 1, !tbaa !58
  %70 = zext i8 %69 to i32
  br label %H5VM_log2_gen.exit

H5VM_log2_gen.exit:                               ; preds = %67, %61, %55, %49, %41, %35, %29, %23, %2
  %.0 = phi i32 [ 0, %2 ], [ %28, %23 ], [ %33, %29 ], [ %40, %35 ], [ %45, %41 ], [ %54, %49 ], [ %59, %55 ], [ %66, %61 ], [ %70, %67 ]
  ret i32 %.0
}